(lp0
S'agent_name'
p1
aS'domain'
p2
aS'reference'
p3
aS'application_type'
p4
aS'environmental_impact_assessment_received'
p5
aS'environmental_assessment_requested'
p6
aS'permission_expiry_date'
p7
aS'target_determination_date'
p8
aS'standard_consultation_expiry_date'
p9
aS'application_validated_date'
p10
aS'borough'
p11
aS'latest_advertisement_expiry_date'
p12
aS'documents_url'
p13
aS'decision'
p14
aS'district_reference'
p15
aS'actual_decision_level'
p16
aS'latest_site_notice_expiry_date'
p17
aS'last_site_notice_posted_date'
p18
aS'expected_decision_level'
p19
aS'last_advertised_in_press_date'
p20
aS'decision_made_date'
p21
aS'neighbour_consultation_expiry_date'
p22
aS'proposal'
p23
aS'latest_neighbour_consultation_date'
p24
aS'decision_printed_date'
p25
aS'application_received_date'
p26
aS'status'
p27
aS'appeal_status'
p28
aS'appeal_decision'
p29
aS'application_received'
p30
aS'expiry_date'
p31
aS'decision_issued_date'
p32
aS'address'
p33
aS'ward'
p34
aS'agent_address'
p35
aS'applicant_name'
p36
aS'determination_deadline'
p37
aS'standard_consultation_date'
p38
aS'alternative_reference'
p39
aS'agent_phone_number'
p40
aS'agent_company_name'
p41
aS'case_officer'
p42
aS'actual_committee_date'
p43
a.