(dp0
S'closing_date_for_comments'
p1
S''
p2
sS'application_registration'
p3
g2
sS'application_type'
p4
g2
sS'appeal_received'
p5
g2
sS'contact_address'
p6
g2
sS'case_reference_borough'
p7
g2
sS'application_validated_date'
p8
g2
sS'agreed_expiry_date'
p9
g2
sS'target_date'
p10
g2
sS'proposed_development'
p11
g2
sS'documents_url'
p12
g2
sS'application_type_normalized'
p13
g2
sS'target_date_for_decision'
p14
g2
sS'appeal_start_date'
p15
g2
sS'appeal_status'
p16
g2
sS'formal_reference_number'
p17
g2
sS'registration_date'
p18
g2
sS'agency_company_name'
p19
g2
sS'statutory_expiry_date'
p20
g2
sS'ward'
p21
g2
sS'agent_address'
p22
g2
sS'appeal_decision_date'
p23
g2
sS'application_validation'
p24
g2
sS'planning_portal_reference'
p25
g2
sS'conditions_and_reasons'
p26
g2
sS'district_reference'
p27
g2
sS'listed_building_grade'
p28
g2
sS'planning_case_officer'
p29
g2
sS'constraints'
p30
g2
sS'conservation_area'
p31
g2
sS'agent_name'
p32
g2
sS'environmental_assessment_requested'
p33
g2
sS'decision_boolean'
p34
g2
sS'permission_expiry_date'
p35
g2
sS'decision_date'
p36
g2
sS'contact_name'
p37
g2
sS'polling_district'
p38
g2
sS'contact_telephone'
p39
g2
sS'decision'
p40
g2
sS'date_received'
p41
g2
sS'expected_decision_level'
p42
g2
sS'planning_team'
p43
g2
sS'application_status'
p44
g2
sS'temporary_permission_expiry_date'
p45
g2
sS'case_reference'
p46
g2
sS'application_received_date'
p47
g2
sS'appeal_decision'
p48
g2
sS'applicants_name'
p49
g2
sS'public_consultation_ends'
p50
g2
sS'amenity_society'
p51
g2
s.