(lp0
S'existing_land_use'
p1
aS'domain'
p2
aS'parishes'
p3
aS'application_constraints'
p4
aS'site_address'
p5
aS'application_type'
p6
aS'agent'
p7
aS'current_status'
p8
aS'recommendation'
p9
aS'application_number'
p10
aS'borough'
p11
aS'determination_level'
p12
aS'application_meetings'
p13
aS'application_dates'
p14
aS'decision'
p15
aS'os_mapsheet'
p16
aS'documents_url'
p17
aS'date_of_committee'
p18
aS'proposal'
p19
aS'case_officer_tel'
p20
aS'division'
p21
aS'appeal_decision'
p22
aS'appeal_submitted'
p23
aS'application_checks'
p24
aS'location_co_ordinates'
p25
aS'application_site_history'
p26
aS'planning_officer'
p27
aS'applicant'
p28
aS'wards'
p29
aS'development_type'
p30
aS'related_documents'
p31
aS'appeal_lodged'
p32
aS'proposed_land_use'
p33
aS'constituency'
p34
aS'application_registered'
p35
aS'comments_until'
p36
a.