(dp0
S'closing_date_for_comments'
p1
S''
p2
sS'application_registration'
p3
g2
sS'application_type'
p4
g4
sS'appeal_received'
p5
g5
sS'contact_address'
p6
g6
sS'application_validated_date'
p7
g2
sS'agreed_expiry_date'
p8
g2
sS'target_date'
p9
g2
sS'proposed_development'
p10
g10
sS'documents_url'
p11
g11
sS'target_date_for_decision'
p12
g12
sS'appeal_start_date'
p13
g13
sS'appeal_status'
p14
g2
sS'formal_reference_number'
p15
g15
sS'registration_date'
p16
S'registration_date_(statutory_start_date)'
p17
sS'agency_company_name'
p18
g2
sS'statutory_expiry_date'
p19
g2
sS'ward'
p20
g20
sS'agent_address'
p21
g2
sS'appeal_decision_date'
p22
g22
sS'application_validation'
p23
g2
sS'planning_portal_reference'
p24
g2
sS'conditions_and_reasons'
p25
g25
sS'district_reference'
p26
g2
sS'listed_building_grade'
p27
g27
sS'planning_case_officer'
p28
g28
sS'constraints'
p29
g2
sS'conservation_area'
p30
g30
sS'agent_name'
p31
g2
sS'domain'
p32
g32
sS'environmental_assessment_requested'
p33
g2
sS'permission_expiry_date'
p34
g2
sS'decision_date'
p35
g35
sS'contact_name'
p36
g36
sS'borough'
p37
g37
sS'polling_district'
p38
g38
sS'contact_telephone'
p39
g39
sS'decision'
p40
g40
sS'date_received'
p41
g41
sS'expected_decision_level'
p42
g2
sS'planning_team'
p43
g43
sS'application_status'
p44
g44
sS'temporary_permission_expiry_date'
p45
g2
sS'case_reference'
p46
g46
sS'application_received_date'
p47
g2
sS'appeal_decision'
p48
g48
sS'applicants_name'
p49
S"applicant's_name"
p50
sS'public_consultation_ends'
p51
g51
sS'amenity_society'
p52
g2
s.