(lp0
S'conservation_area'
p1
aS'domain'
p2
aS'application_type'
p3
aS'contact_address'
p4
aS'decision_date'
p5
aS'contact_name'
p6
aS'borough'
p7
aS'polling_district'
p8
aS'contact_telephone'
p9
aS'decision'
p10
aS'date_received'
p11
aS'proposed_development'
p12
aS'documents_url'
p13
aS'application_status'
p14
aS'target_date_for_decision'
p15
aS'case_reference'
p16
aS'registration_date_(statutory_start_date)'
p17
aS"applicant's_name"
p18
aS'public_consultation_ends'
p19
aS'address'
p20
aS'ward'
p21
aS'conditions_and_reasons'
p22
aS'listed_building_grade'
p23
aS'appeal_decision'
p24
aS'appeal_decision_date'
p25
aS'formal_reference_number'
p26
aS'appeal_received'
p27
aS'planning_team'
p28
aS'planning_case_officer'
p29
aS'appeal_start_date'
p30
a.