(lp0
S'existing_land_use'
p1
aS'domain'
p2
aS'parishes'
p3
aS'application_number'
p4
aS'site_address'
p5
aS'application_type'
p6
aS'agent'
p7
aS'current_status'
p8
aS'recommendation'
p9
aS'borough'
p10
aS'determination_level'
p11
aS'application_meetings'
p12
aS'application_dates'
p13
aS'decision'
p14
aS'documents_url'
p15
aS'date_of_committee'
p16
aS'proposal'
p17
aS'case_officer_tel'
p18
aS'division'
p19
aS'appeal_decision'
p20
aS'appeal_submitted'
p21
aS'location_co_ordinates'
p22
aS'os_mapsheet'
p23
aS'planning_officer'
p24
aS'applicant'
p25
aS'wards'
p26
aS'development_type'
p27
aS'appeal_lodged'
p28
aS'proposed_land_use'
p29
aS'application_registered'
p30
aS'comments_until'
p31
aS'application_constraints'
p32
aS'application_site_history'
p33
aS'consultees_details'
p34
aS'neighbours_details'
p35
aS'application_refusal_reasons'
p36
aS'application_checks'
p37
aS'view_related_documents'
p38
a.