(lp0
S'agent_name'
p1
aS'domain'
p2
aS'reference'
p3
aS'application_type'
p4
aS'environmental_assessment_requested'
p5
aS'borough'
p6
aS'appeal_decision'
p7
aS'documents_url'
p8
aS'expected_decision_level'
p9
aS'proposal'
p10
aS'status'
p11
aS'appeal_status'
p12
aS'district_reference'
p13
aS'application_received'
p14
aS'address'
p15
aS'ward'
p16
aS'agent_address'
p17
aS'applicant_name'
p18
aS'amenity_society'
p19
aS'alternative_reference'
p20
aS'agent_company_name'
p21
aS'case_officer'
p22
aS'application_validated'
p23
aS'applicant_address'
p24
aS'decision'
p25
aS'actual_decision_level'
p26
aS'decision_issued_date'
p27
a.